target datalayout = "e-m:e-p270:32:32-p271:32:32-p272:64:64-i64:64-i128:128-f80:128-n8:16:32:64-S128"
target triple = "x86_64-unknown-linux-gnu"

%struct.QCryptoBlockLUKSHeader = type { [6 x i8], i16, [32 x i8], [32 x i8], [32 x i8], i32, i32, [20 x i8], [32 x i8], i32, [40 x i8], [8 x %struct.QCryptoBlockLUKSKeySlot] }
%struct.QCryptoBlockLUKSKeySlot = type { i32, i32, [32 x i8], i32, i32 }
%struct.QCryptoBlock = type { i32, ptr, ptr, ptr, i64, i64, ptr, %struct.QemuMutex, i32, i64, i64, i64 }
%struct.QemuMutex = type { %union.pthread_mutex_t, i8 }
%union.pthread_mutex_t = type { %struct.__pthread_mutex_s }
%struct.__pthread_mutex_s = type { i32, i32, i32, i32, i32, i16, i16, %struct.__pthread_internal_list }
%struct.__pthread_internal_list = type { ptr, ptr }
%struct.QCryptoBlockLUKS = type { %struct.QCryptoBlockLUKSHeader, i32, i32, i32, i32, i32, i32, ptr }

; Function Attrs: nounwind sspstrong uwtable
define internal void @qcrypto_block_luks_cleanup(ptr noundef %block) #0 {
entry:
  %block.addr = alloca ptr, align 8
  %luks = alloca ptr, align 8
  store ptr %block, ptr %block.addr, align 8
  %0 = load ptr, ptr %block.addr, align 8
  %opaque = getelementptr inbounds %struct.QCryptoBlock, ptr %0, i32 0, i32 2
  %1 = load ptr, ptr %opaque, align 8
  store ptr %1, ptr %luks, align 8
  %2 = load ptr, ptr %luks, align 8
  %tobool = icmp ne ptr %2, null
  br i1 %tobool, label %if.then, label %if.end

if.then:                                          ; preds = %entry
  %3 = load ptr, ptr %luks, align 8
  %secret = getelementptr inbounds %struct.QCryptoBlockLUKS, ptr %3, i32 0, i32 7
  %4 = load ptr, ptr %secret, align 8
  call void @g_free(ptr noundef %4)
  %5 = load ptr, ptr %luks, align 8
  call void @g_free(ptr noundef %5)
  br label %if.end

if.end:                                           ; preds = %if.then, %entry
  ret void
}