; Function Attrs: nounwind sspstrong uwtable
define internal void @qcrypto_block_luks_cleanup(ptr noundef readonly captures(none) %block) #1 {
entry:
  %opaque = getelementptr inbounds nuw i8, ptr %block, i64 16
  %0 = load ptr, ptr %opaque, align 8
  %tobool.not = icmp eq ptr %0, null
  br i1 %tobool.not, label %if.end, label %if.then

if.then:                                          ; preds = %entry
  %secret = getelementptr inbounds nuw i8, ptr %0, i64 616
  %1 = load ptr, ptr %secret, align 8
  tail call void @g_free(ptr noundef %1) #16
  tail call void @g_free(ptr noundef nonnull %0) #16
  br label %if.end

if.end:                                           ; preds = %if.then, %entry
  ret void
}